Turbo Assembler	 Version 4.1	    03/10/26 11:18:29	    Page 1
crack.asm



      1				     ;================================Settings================================
      2				     .286
      3				     LOCALS @@
      4	0000			     .model tiny
      5	0000			     .code
      6				     org 100h
      7				     ;========================================================================
      8				     STOS_LINE	     macro sym,	clr, len
      9						     mov al, sym
     10						     mov ah, clr
     11						     mov cx, len
     12						     rep stosw ;ax -> es:di
     13						     endm
     14				     ;=========================================================================
     15				     END_PROG			     macro
     16									     mov ax, 4c00h
     17									     int 21h
     18									     endm
     19				     ;========================================================================
     20	0100			     Start:
     21				     ;=================================Main===================================
     22	0100			     Main	     proc
     23	0100  E8 0050				     call Get_Access
     24
     25						     END_PROG
1    26	0103  B8 4C00							     mov ax, 4c00h
1    27	0106  CD 21							     int 21h
     28	0108					     endp
     29				     ;========================================================================
     30	      =B800		     _VmemSeg_ equ 0b800h
     31	      =0370		     _VmemPos_ equ (5 *	80d + 40d) * 2
     32	      =008B		     color_0 equ 0bh or	80h
     33	      =0003		     symbol_0 equ 03h
     34	      =0003		     hght_0 equ	3
     35	      =0014		     wdth_0 equ	20
     36	      =0012		     accces_strlen equ 18
     37	      =0008		     pwd_len = 8
     38	0108  45 6E 74 65 72 20	50+  prompt db 'Enter Password:	', '$'
     39	      61 73 73 77 6F 72	64+
     40	      3A 20 24
     41	0119  12 00 09*(24)	     Input_Buf db 18, 0, 9 dup('$') ;pwd + 0dh
     42	0124  31 32 33 34 35 36	37+  Pwd_Buf db	'12345670', 0dh
     43	      30 0D
     44	012D  21 20 41 63 63 65	73+  grant_msg db '! Access granted !',	'$'
     45	      73 20 67 72 61 6E	74+
     46	      65 64 20 21 24
     47	0140  21 20 41 63 63 65	73+  deny_msg db '! Access  denied !', '$'
     48	      73 20 20 64 65 6E	69+
     49	      65 64 20 21 24
     50				     ;===============================Get_Access===============================
     51	0153			     Get_Access	     proc
     52	0153  E8 001D				     call Enter_Pwd ;cl	- len input_buf	- pwd for check
     53
     54	0156  E8 0004				     call Check_Pwd ;al	- set access flag
     55
     56	0159  E8 002C				     call Draw_Frame ;draw access frame
     57
Turbo Assembler	 Version 4.1	    03/10/26 11:18:29	    Page 2
crack.asm



     58	015C  C3				     ret
     59	015D					     endp
     60				     ;===============================Get_Access===============================
     61				     ;Entry: es	- buf seg
     62				     ;	     di	- write	offset
     63				     ;Exit:  -
     64				     ;Expected:
     65				     ;Destroyed:
     66				     ;Comment: check access and	draw access frame
     67				     ;ToDo: hash secure
     68				     ;========================================================================
     69
     70				     ;===============================Check_Pwd================================
     71	015D			     Check_Pwd	     proc
     72
     73	015D  32 C0				     xor al, al	; def flag = 0
     74
     75						     ; cmp cl, pwd_len
     76						     ; jne @@exit ;not equal length
     77
     78	015F  8C DB				     mov bx, ds
     79	0161  8E C3				     mov es, bx
     80	0163  BF 0124r				     mov di, offset Pwd_Buf
     81	0166  BE 011Br				     lea si, [Input_Buf	+ 2]
     82	0169  B9 0008				     mov cx, pwd_len
     83	016C  F3> A6				     repe cmpsb
     84	016E  75 02				     jne @@exit
     85
     86	0170  FE C0				     inc al ; flag = 1
     87
     88	0172  C3		     @@exit:	     ret
     89	0173					     endp
     90				     ;===============================Check_Pwd================================
     91				     ;Entry: es:di - buf seg
     92				     ;	     di	- write	offset
     93				     ;Exit:  al
     94				     ;Expected:
     95				     ;Destroyed: ax, bx, cx, es
     96				     ;Comment: return access flag  in al - 0(deny) or 1(grant)
     97				     ;ToDo:
     98				     ;========================================================================
     99
    100				     ;===============================Enter_Pwd================================
    101	0173			     Enter_Pwd	     proc
    102	0173  B4 09				     mov ah, 09h
    103	0175  BA 0108r				     mov dx, offset prompt ; enter str
    104	0178  CD 21				     int 21h
    105
    106	017A  B4 0A				     mov ah, 0ah
    107	017C  BA 0119r				     mov dx, offset Input_Buf
    108	017F  CD 21				     int 21h ;input pwd	in ds:dx
    109
    110	0181  8A 0E 011Ar			     mov cl, [Input_Buf	+ 1] ;get length
    111	0185  32 ED				     xor ch, ch
    112
    113	0187  C3				     ret
    114	0188					     endp
Turbo Assembler	 Version 4.1	    03/10/26 11:18:29	    Page 3
crack.asm



    115				     ;===============================Enter_Pwd================================
    116				     ;Entry:
    117				     ;Exit: cl - len
    118				     ;Expected:	ds = default
    119				     ;Destroyed: ax, cx, dx
    120				     ;Comment: cpy cmd pwd_str to input	buf
    121				     ;ToDo:
    122				     ;========================================================================
    123
    124				     ;================================Draw_Frame==============================
    125	0188			     Draw_Frame	     proc
    126
    127	0188  BA B800				     mov dx, _VmemSeg_
    128	018B  8E C2				     mov es, dx
    129	018D  BF 0370				     mov di, _VmemPos_
    130
    131	0190  BE 0140r				     mov si, offset deny_msg
    132	0193  3C 01				     cmp al, 1;	is granted
    133	0195  75 03				     jne @@next
    134	0197  BE 012Dr				     mov si, offset grant_msg
    135
    136	019A			     @@next:	     STOS_LINE 201, color_0, 1 ;up lft corner
1   137	019A  B0 C9				     mov al, 201
1   138	019C  B4 8B				     mov ah, color_0
1   139	019E  B9 0001				     mov cx, 1
1   140	01A1  F3> AB				     rep stosw ;ax -> es:di
    141						     STOS_LINE 205, color_0, accces_strlen ;up hor line
1   142	01A3  B0 CD				     mov al, 205
1   143	01A5  B4 8B				     mov ah, color_0
1   144	01A7  B9 0012				     mov cx, accces_strlen
1   145	01AA  F3> AB				     rep stosw ;ax -> es:di
    146						     STOS_LINE 187, color_0, 1 ;up rght	corner
1   147	01AC  B0 BB				     mov al, 187
1   148	01AE  B4 8B				     mov ah, color_0
1   149	01B0  B9 0001				     mov cx, 1
1   150	01B3  F3> AB				     rep stosw ;ax -> es:di
    151	01B5  8D 7D 78				     lea di, [di + (80d	- wdth_0) * 2] ;next line
    152
    153
    154						     STOS_LINE 186, color_0, 1 ;left piece
1   155	01B8  B0 BA				     mov al, 186
1   156	01BA  B4 8B				     mov ah, color_0
1   157	01BC  B9 0001				     mov cx, 1
1   158	01BF  F3> AB				     rep stosw ;ax -> es:di
    159	01C1  B9 0012				     mov cx, wdth_0 - 2	;wdth -	2 borders
    160	01C4  B4 8B				     mov ah, color_0
    161	01C6  AC		     @@lp:	     lodsb ;ds:si -> al
    162	01C7  AB				     stosw ;ax -> vmem
    163	01C8  E2 FC				     loop @@lp
    164						     STOS_LINE 186, color_0, 1 ;right piece
1   165	01CA  B0 BA				     mov al, 186
1   166	01CC  B4 8B				     mov ah, color_0
1   167	01CE  B9 0001				     mov cx, 1
1   168	01D1  F3> AB				     rep stosw ;ax -> es:di
    169
    170	01D3  8D 7D 78				     lea di, [di + (80d	- wdth_0) * 2] ;next line
    171						     STOS_LINE 200, color_0, 1 ;lft corner
Turbo Assembler	 Version 4.1	    03/10/26 11:18:29	    Page 4
crack.asm



1   172	01D6  B0 C8				     mov al, 200
1   173	01D8  B4 8B				     mov ah, color_0
1   174	01DA  B9 0001				     mov cx, 1
1   175	01DD  F3> AB				     rep stosw ;ax -> es:di
    176						     STOS_LINE 205, color_0, accces_strlen;dwn line
1   177	01DF  B0 CD				     mov al, 205
1   178	01E1  B4 8B				     mov ah, color_0
1   179	01E3  B9 0012				     mov cx, accces_strlen
1   180	01E6  F3> AB				     rep stosw ;ax -> es:di
    181						     STOS_LINE 188, color_0, 1 ;rght corner
1   182	01E8  B0 BC				     mov al, 188
1   183	01EA  B4 8B				     mov ah, color_0
1   184	01EC  B9 0001				     mov cx, 1
1   185	01EF  F3> AB				     rep stosw ;ax -> es:di
    186
    187	01F1  C3				     ret
    188	01F2					     endp
    189				     ;================================Draw_Frame==============================
    190				     ;Entry: es:di - draw:pos
    191				     ;	     ds:si - access str	addr
    192				     ;	     al	- access flag
    193				     ;Exit:  -
    194				     ;Expected:	ds = default
    195				     ;Destroyed: dx, di, si
    196				     ;Comment: draw access frame
    197				     ;ToDo:
    198				     ;========================================================================
    199
    200				     ;====================================End=================================
    201	01F2			     End_Of_Prog:
    202				     end	     Start
Turbo Assembler	 Version 4.1	    03/10/26 11:18:29	    Page 5
Symbol Table




Symbol Name			  Type	 Value

??DATE				  Text	 "03/10/26"
??FILENAME			  Text	 "crack	  "
??TIME				  Text	 "11:18:29"
??VERSION			  Number 040A
@32BIT				  Text	 0
@@EXIT				  Near	 DGROUP:0172
@@LP				  Near	 DGROUP:01C6
@@NEXT				  Near	 DGROUP:019A
@CODE				  Text	 DGROUP
@CODESIZE			  Text	 0
@CPU				  Text	 0707H
@CURSEG				  Text	 _TEXT
@DATA				  Text	 DGROUP
@DATASIZE			  Text	 0
@FILENAME			  Text	 CRACK
@INTERFACE			  Text	 000H
@MODEL				  Text	 1
@STACK				  Text	 DGROUP
@WORDSIZE			  Text	 2
ACCCES_STRLEN			  Number 0012
CHECK_PWD			  Near	 DGROUP:015D
COLOR_0				  Number 008B
DENY_MSG			  Byte	 DGROUP:0140
DRAW_FRAME			  Near	 DGROUP:0188
END_OF_PROG			  Near	 DGROUP:01F2
ENTER_PWD			  Near	 DGROUP:0173
GET_ACCESS			  Near	 DGROUP:0153
GRANT_MSG			  Byte	 DGROUP:012D
HGHT_0				  Number 0003
INPUT_BUF			  Byte	 DGROUP:0119
MAIN				  Near	 DGROUP:0100
PROMPT				  Byte	 DGROUP:0108
PWD_BUF				  Byte	 DGROUP:0124
PWD_LEN				  Number 0008
START				  Near	 DGROUP:0100
SYMBOL_0			  Number 0003
WDTH_0				  Number 0014
_VMEMPOS_			  Number 0370
_VMEMSEG_			  Number B800

Macro Name

END_PROG
STOS_LINE

Groups & Segments		  Bit Size Align  Combine Class

DGROUP				  Group
  _DATA				  16  0000 Word	  Public  DATA
  _TEXT				  16  01F2 Word	  Public  CODE
