Turbo Assembler	 Version 4.1	    03/11/26 19:52:41	    Page 1
crack.asm



      1				     ;================================Settings================================
      2				     .286
      3				     EXTRN Strlen:NEAR,	Strchr:NEAR, Skip_Spaces:NEAR, Atoi:NEAR
      4				     LOCALS @@
      5	0000			     .model tiny
      6	0000			     .code
      7				     org 100h
      8				     ;========================================================================
      9				     STOS_LINE		 macro sym, clr, len
     10							 mov al, sym
     11							 mov ah, clr
     12							 mov cx, len
     13							 rep stosw ;ax -> es:di
     14							 endm
     15				     ;========================================================================
     16				     STOSUP_LINE	 macro clr, len
     17							 STOS_LINE 201,	clr, 1 ;up lft corner
     18							 STOS_LINE 205,	clr, len ;up hor line
     19							 STOS_LINE 187,	clr, 1 ;up rght	corner
     20							 endm
     21				     ;========================================================================
     22				     NEXTLINE		 macro len
     23							 lea di, [di + (80d - len - 2d)	* 2] ;next line
     24							 endm
     25				     ;========================================================================
     26				     STOSDWN_LINE	 macro clr, len
     27							 STOS_LINE 200,	clr, 1 ;up lft corner
     28							 STOS_LINE 205,	clr, len ;up hor line
     29							 STOS_LINE 188,	clr, 1 ;up rght	corner
     30							 endm
     31				     ;=========================================================================
     32				     END_PROG			     macro
     33									     mov ax, 4c00h
     34									     int 21h
     35									     endm
     36				     ;========================================================================
     37	      =B800		     _VmemSeg_ equ 0b800h
     38	      =07B6		     _VmemPos_ equ (12 * 80d + 27d) * 2
     39	      =001A		     color_0 equ 1ah ;or 80h
     40	      =002B		     symbol_1 equ '+'
     41	      =002D		     symbol_0 equ '-'
     42	      =003E		     scancode_0	equ 3eh	;f4
     43	      =0005		     hght_0 equ	5
     44	      =000D		     wdth_0 equ	13
     45	      =0012		     accces_strlen equ 18
     46	      =0008		     pwd_len equ 8
     47	      =0009		     def_size equ 9d
     48	      =0064		     huge_size equ 100d
     49				     ;==============================DATASEG===================================
     50	0100			     .data
     51	0000  21 20 41 63 63 65	73+  grant_msg db '! Access granted !',	'$'
     52	      73 20 67 72 61 6E	74+
     53	      65 64 20 21 24
     54	0013  21 20 41 63 63 65	73+  deny_msg db '! Access  denied !', '$'
     55	      73 20 20 64 65 6E	69+
     56	      65 64 20 21 24
     57	0026  45 6E 74 65 72 20	50+  prompt db 'Enter Password:	', '$'
Turbo Assembler	 Version 4.1	    03/11/26 19:52:41	    Page 2
crack.asm



     58	      61 73 73 77 6F 72	64+
     59	      3A 20 24
     60	0037  09 00 09*(24)	     Input_Buf db 9, 0,	9 dup('$') ;pwd	+ 0dh
     61	0042  31 32 33 34 35 36	37+  Pwd_Buf db	'12345670', 0dh
     62	      30 0D
     63	004B  50 72 65 73 73 20	61+  msg db 'Press any key to start... ', 0dh, 0ah, '$'
     64	      6E 79 20 6B 65 79	20+
     65	      74 6F 20 73 74 61	72+
     66	      74 2E 2E 2E 20 0D	0A+
     67	      24
     68	0068  7C 20 53 65 74 74	69+  Menu_Data db '| Settings  |', '$'
     69	      6E 67 73 20 20 7C	24
     70	0076  0C 4C 03 0D 28 30	29+  Settings_Data db 12, 4ch, 3, 13, '(0) SizeLim ', '-', '(1)	Encode	', '-',	'(2) StopInt ',	'-' +
     71	      20 53 69 7A 65 4C	69+  ;statuspos, color,	nsets, setlen, set1, set2, set3...
     72	      6D 20 2D 28 31 29	20+
     73	      45 6E 63 6F 64 65	20+
     74	      20 2D 28 32 29 20	53+
     75	      74 6F 70 49 6E 74	20+
     76	      2D
     77	00A1  00 01 00		     Status_Data db 0, 1, 0 ;default turn ON
     78				     ;========================================================================
     79
     80				     ;=============================CODESEG====================================
     81	00A4			     .code
     82	0100			     Start:
     83				     ;=================================Main===================================
     84	0100			     Main	     proc
     85	0100  E8 0005				     call Get_Access
     86						     END_PROG
1    87	0103  B8 4C00							     mov ax, 4c00h
1    88	0106  CD 21							     int 21h
     89	0108					     endp
     90				     ;========================================================================
     91
     92				     ;===============================Get_Access===============================
     93	0108			     Get_Access	     proc
     94	0108  E8 0011				     call WaitForKey ;waiting for any key to start
     95	010B  8B F8				     mov di, ax
     96	010D  E8 003D				     call Enter_Pwd ;cl	- len input_buf	- pwd for check
     97	0110  8B C7				     mov ax, di
     98	0112  E8 001D				     call Encode_Pwd
     99
    100	0115  E8 0057				     call Check_Pwd ;al	- set access flag
    101
    102	0118  E8 006A				     call Show_Access ;draw access frame al = 1	granted
    103
    104	011B  C3				     ret
    105	011C					     endp
    106				     ;===============================Get_Access===============================
    107				     ;Entry: es	- buf seg
    108				     ;	     di	- write	offset
    109				     ;Exit:  -
    110				     ;Expected:
    111				     ;Destroyed:
    112				     ;Comment: check access and	draw access frame
    113				     ;ToDo: hash secure
    114				     ;========================================================================
Turbo Assembler	 Version 4.1	    03/11/26 19:52:41	    Page 3
crack.asm



    115
    116				     ;===============================WaitForKey===============================
    117	011C			     WaitForKey	     proc
    118	011C  B4 09		     @@back:	     mov ah, 09h ;dos output
    119	011E  BA 004Br				     mov dx, offset msg
    120	0121  CD 21				     int 21h ;out msg
    121
    122	0123  32 E4				     xor ah, ah	      ;	AH = 0
    123	0125  CD 16				     int 16h	      ;	BIOS keyboard interrupt	wait for any key
    124						     ; AH = scancode, AL = ASCII
    125						     ; call Encode_Pwd
    126
    127	0127  80 FC 3E				     cmp ah, scancode_0	;f4
    128	012A  75 05				     jne @@exit
    129
    130	012C  E8 00C0				     call Show_Settings	;f4 pressed -> call settings
    131	012F  EB EB				     jmp @@back
    132
    133	0131  C3		     @@exit:	     ret
    134	0132					     endp
    135				     ;===============================WaitForKey===============================
    136				     ;Entry:
    137				     ;Exit: mode
    138				     ;Expected:	ds = default
    139				     ;Destroyed: ax, cx, dx
    140				     ;Comment: cpy cmd pwd_str to input	buf
    141				     ;ToDo:
    142				     ;========================================================================
    143
    144				     ;==============================Encode_Pwd================================
    145	0132			     Encode_Pwd	     proc
    146
    147						     ; cmp ah, 0 ;0scancode not	checked
    148						     ; je @@exit
    149
    150	0132  8A 1E 00A2r			     mov bl, [Status_Data + 1d]
    151	0136  84 DB				     test bl, bl
    152	0138  74 12				     jz	@@exit
    153
    154	013A  8A DC				     mov bl, ah	;save scancode
    155	013C  B9 0008				     mov cx, pwd_len
    156	013F  BE 0042r				     mov si, offset Pwd_Buf
    157	0142  1E				     push ds
    158	0143  07				     pop es
    159	0144  8B FE				     mov di, si
    160
    161	0146  AC		     @@lp:	     lodsb
    162	0147  F6 E3				     mul bl ;ax	- res could be more than al
    163	0149  AA				     stosb
    164	014A  E2 FA				     loop @@lp
    165
    166	014C  C3		     @@exit:	     ret
    167	014D					     endp
    168				     ;==============================Encode_Pwd================================
    169				     ;Entry: ah	= scancode of first key	pressed
    170				     ;Exit: encoded pwd	in Pwd_buf
    171				     ;Expected:	ds = def
Turbo Assembler	 Version 4.1	    03/11/26 19:52:41	    Page 4
crack.asm



    172				     ;Destroyed: ax, bx, cx
    173				     ;Comment: encode pwd with scancode	from waitforkey
    174				     ;ToDo:
    175				     ;========================================================================
    176
    177				     ;===============================Enter_Pwd================================
    178	014D			     Enter_Pwd	     proc
    179
    180	014D  8A 1E 00A1r			     mov bl, [Status_Data]
    181	0151  84 DB				     test bl, bl
    182	0153  75 05				     jnz @@skip_resize
    183	0155  C6 06 0037r 64			     mov byte ptr [Input_Buf], huge_size ;100d
    184
    185	015A			     @@skip_resize:
    186	015A  B4 09				     mov ah, 09h ;dos output
    187	015C  BA 0026r				     mov dx, offset prompt ; enter str
    188	015F  CD 21				     int 21h ;make prompt str
    189
    190	0161  B4 0A				     mov ah, 0ah ;dos input
    191	0163  BA 0037r				     mov dx, offset Input_Buf
    192	0166  CD 21				     int 21h ;input pwd	in ds:dx
    193
    194	0168  8A 0E 0038r			     mov cl, [Input_Buf	+ 1] ;get length
    195	016C  32 ED				     xor ch, ch
    196
    197	016E  C3				     ret
    198	016F					     endp
    199				     ;===============================Enter_Pwd================================
    200				     ;Entry:
    201				     ;Exit: cl - len
    202				     ;Expected:	ds = default
    203				     ;Destroyed: ax, cx, dx
    204				     ;Comment: cpy cmd pwd_str to input	buf
    205				     ;ToDo:
    206				     ;========================================================================
    207
    208				     ;===============================Check_Pwd================================
    209	016F			     Check_Pwd	     proc
    210	016F  32 C0				     xor al, al	; def flag = 0
    211
    212						     ; cmp cl, pwd_len
    213						     ; jne @@exit ;not equal length
    214
    215	0171  8C DB				     mov bx, ds
    216	0173  8E C3				     mov es, bx
    217	0175  BF 0042r				     mov di, offset Pwd_Buf
    218	0178  BE 0039r				     lea si, [Input_Buf	+ 2] ;pwd start
    219	017B  B9 0008				     mov cx, pwd_len
    220	017E  F3> A6				     repe cmpsb
    221	0180  75 02				     jne @@exit
    222	0182  FE C0				     inc al ; flag = 1
    223
    224	0184  C3		     @@exit:	     ret
    225	0185					     endp
    226				     ;===============================Check_Pwd================================
    227				     ;Entry: es:di - buf seg
    228				     ;	     di	- write	offset
Turbo Assembler	 Version 4.1	    03/11/26 19:52:41	    Page 5
crack.asm



    229				     ;Exit:  al	- access flag
    230				     ;Expected:
    231				     ;Destroyed: ax, bx, cx, es
    232				     ;Comment: return access flag  in al - 0(deny) or 1(grant)
    233				     ;ToDo:
    234				     ;========================================================================
    235
    236				     ;================================Show_Access=============================
    237	0185			     Show_Access     proc
    238	0185  BA B800				     mov dx, _VmemSeg_
    239	0188  8E C2				     mov es, dx
    240	018A  BF 07B6				     mov di, _VmemPos_
    241
    242	018D  BE 0013r				     mov si, offset deny_msg
    243	0190  3C 01				     cmp al, 1;	is granted
    244	0192  75 03				     jne @@next
    245	0194  BE 0000r				     mov si, offset grant_msg
    246
    247	0197			     @@next:	     STOSUP_LINE color_0, accces_strlen
1   248							 STOS_LINE 201,	color_0, 1 ;up lft corner
2   249	0197  B0 C9					 mov al, 201
2   250	0199  B4 1A					 mov ah, color_0
2   251	019B  B9 0001					 mov cx, 1
2   252	019E  F3> AB					 rep stosw ;ax -> es:di
1   253							 STOS_LINE 205,	color_0, accces_strlen ;up hor line
2   254	01A0  B0 CD					 mov al, 205
2   255	01A2  B4 1A					 mov ah, color_0
2   256	01A4  B9 0012					 mov cx, accces_strlen
2   257	01A7  F3> AB					 rep stosw ;ax -> es:di
1   258							 STOS_LINE 187,	color_0, 1 ;up rght corner
2   259	01A9  B0 BB					 mov al, 187
2   260	01AB  B4 1A					 mov ah, color_0
2   261	01AD  B9 0001					 mov cx, 1
2   262	01B0  F3> AB					 rep stosw ;ax -> es:di
    263						     NEXTLINE accces_strlen
1   264	01B2  8D 7D 78					 lea di, [di + (80d - accces_strlen - 2d) * 2] ;next line
    265
    266						     STOS_LINE 186, color_0, 1 ;left piece
1   267	01B5  B0 BA					 mov al, 186
1   268	01B7  B4 1A					 mov ah, color_0
1   269	01B9  B9 0001					 mov cx, 1
1   270	01BC  F3> AB					 rep stosw ;ax -> es:di
    271	01BE  B9 0012				     mov cx, accces_strlen ;wdth - 2 borders
    272	01C1  B4 1A				     mov ah, color_0
    273	01C3  AC		     @@lp:	     lodsb   ; ds:si ->	al
    274	01C4  AB				     stosw   ; ax -> vmem
    275	01C5  E2 FC				     loop @@lp
    276						     STOS_LINE 186, color_0, 1 ;right piece
1   277	01C7  B0 BA					 mov al, 186
1   278	01C9  B4 1A					 mov ah, color_0
1   279	01CB  B9 0001					 mov cx, 1
1   280	01CE  F3> AB					 rep stosw ;ax -> es:di
    281
    282						     NEXTLINE accces_strlen
1   283	01D0  8D 7D 78					 lea di, [di + (80d - accces_strlen - 2d) * 2] ;next line
    284						     STOSDWN_LINE color_0, accces_strlen
1   285							 STOS_LINE 200,	color_0, 1 ;up lft corner
Turbo Assembler	 Version 4.1	    03/11/26 19:52:41	    Page 6
crack.asm



2   286	01D3  B0 C8					 mov al, 200
2   287	01D5  B4 1A					 mov ah, color_0
2   288	01D7  B9 0001					 mov cx, 1
2   289	01DA  F3> AB					 rep stosw ;ax -> es:di
1   290							 STOS_LINE 205,	color_0, accces_strlen ;up hor line
2   291	01DC  B0 CD					 mov al, 205
2   292	01DE  B4 1A					 mov ah, color_0
2   293	01E0  B9 0012					 mov cx, accces_strlen
2   294	01E3  F3> AB					 rep stosw ;ax -> es:di
1   295							 STOS_LINE 188,	color_0, 1 ;up rght corner
2   296	01E5  B0 BC					 mov al, 188
2   297	01E7  B4 1A					 mov ah, color_0
2   298	01E9  B9 0001					 mov cx, 1
2   299	01EC  F3> AB					 rep stosw ;ax -> es:di
    300	01EE  C3				     ret
    301	01EF					     endp
    302				     ;================================Show_Access=============================
    303				     ;Entry: es:di - draw:pos
    304				     ;	     ds:si - access str	addr
    305				     ;	     al	- access flag
    306				     ;Exit:  -
    307				     ;Expected:	ds = default
    308				     ;Destroyed: cx, dx, di, si
    309				     ;Comment: draw access frame
    310				     ;ToDo:
    311				     ;========================================================================
    312
    313				     ;===============================Show_Settings============================
    314	01EF			     Show_Settings   proc
    315	01EF  B8 B800				     mov ax, _VmemSeg_
    316	01F2  8E C0				     mov es, ax
    317	01F4  BF 07B6				     mov di, _VmemPos_
    318	01F7  BB 00A1r				     mov bx, offset Status_Data
    319
    320						     STOSUP_LINE color_0, wdth_0
1   321							 STOS_LINE 201,	color_0, 1 ;up lft corner
2   322	01FA  B0 C9					 mov al, 201
2   323	01FC  B4 1A					 mov ah, color_0
2   324	01FE  B9 0001					 mov cx, 1
2   325	0201  F3> AB					 rep stosw ;ax -> es:di
1   326							 STOS_LINE 205,	color_0, wdth_0	;up hor	line
2   327	0203  B0 CD					 mov al, 205
2   328	0205  B4 1A					 mov ah, color_0
2   329	0207  B9 000D					 mov cx, wdth_0
2   330	020A  F3> AB					 rep stosw ;ax -> es:di
1   331							 STOS_LINE 187,	color_0, 1 ;up rght corner
2   332	020C  B0 BB					 mov al, 187
2   333	020E  B4 1A					 mov ah, color_0
2   334	0210  B9 0001					 mov cx, 1
2   335	0213  F3> AB					 rep stosw ;ax -> es:di
    336						     NEXTLINE wdth_0 ;next line
1   337	0215  8D BD 0082				 lea di, [di + (80d - wdth_0 - 2d) * 2]	;next line
    338
    339						     STOS_LINE 186, color_0, 1
1   340	0219  B0 BA					 mov al, 186
1   341	021B  B4 1A					 mov ah, color_0
1   342	021D  B9 0001					 mov cx, 1
Turbo Assembler	 Version 4.1	    03/11/26 19:52:41	    Page 7
crack.asm



1   343	0220  F3> AB					 rep stosw ;ax -> es:di
    344	0222  B4 1A				     mov ah, color_0
    345	0224  BE 0068r				     mov si, offset Menu_Data
    346	0227  B9 000D				     mov cx, wdth_0
    347	022A  AC		     @@Menu:	     lodsb
    348	022B  AB				     stosw
    349	022C  E2 FC				     loop @@Menu
    350						     STOS_LINE 186, color_0, 1
1   351	022E  B0 BA					 mov al, 186
1   352	0230  B4 1A					 mov ah, color_0
1   353	0232  B9 0001					 mov cx, 1
1   354	0235  F3> AB					 rep stosw ;ax -> es:di
    355						     NEXTLINE wdth_0 ;next line
1   356	0237  8D BD 0082				 lea di, [di + (80d - wdth_0 - 2d) * 2]	;next line
    357
    358	023B  BE 007Ar				     lea si, [Settings_Data + 4d] ; addr = data	+ skip params
    359	023E  32 ED				     xor ch, ch
    360	0240  8A 0E 0078r			     mov cl, [Settings_Data + 2d] ; cx = Nsettings
    361
    362	0244  8B D1		     @@lp:	     mov dx, cx	;save cx
    363						     STOS_LINE 186, color_0, 1 ;left piece
1   364	0246  B0 BA					 mov al, 186
1   365	0248  B4 1A					 mov ah, color_0
1   366	024A  B9 0001					 mov cx, 1
1   367	024D  F3> AB					 rep stosw ;ax -> es:di
    368
    369	024F  8A 0E 0079r			     mov cl, [Settings_Data + 3d] ;line	wdth
    370
    371	0253  AC		     @@lp_line:	     lodsb   ; ds:si ->	al
    372
    373	0254  80 F9 01				     cmp cl, 1d	;last symbol = status
    374	0257  74 35				     je	@@set_clr
    375
    376	0259  B4 1A		     @@OFF:	     mov ah, color_0
    377	025B  AB		     @@ON:	     stosw   ; ax -> vmem
    378	025C  E2 F5				     loop @@lp_line
    379
    380						     STOS_LINE 186, color_0, 1 ;right piece
1   381	025E  B0 BA					 mov al, 186
1   382	0260  B4 1A					 mov ah, color_0
1   383	0262  B9 0001					 mov cx, 1
1   384	0265  F3> AB					 rep stosw ;ax -> es:di
    385						     NEXTLINE wdth_0
1   386	0267  8D BD 0082				 lea di, [di + (80d - wdth_0 - 2d) * 2]	;next line
    387
    388	026B  43				     inc bx ;next status
    389	026C  8B CA				     mov cx, dx
    390	026E  E2 D4				     loop @@lp
    391
    392						     STOSDWN_LINE color_0, wdth_0
1   393							 STOS_LINE 200,	color_0, 1 ;up lft corner
2   394	0270  B0 C8					 mov al, 200
2   395	0272  B4 1A					 mov ah, color_0
2   396	0274  B9 0001					 mov cx, 1
2   397	0277  F3> AB					 rep stosw ;ax -> es:di
1   398							 STOS_LINE 205,	color_0, wdth_0	;up hor	line
2   399	0279  B0 CD					 mov al, 205
Turbo Assembler	 Version 4.1	    03/11/26 19:52:41	    Page 8
crack.asm



2   400	027B  B4 1A					 mov ah, color_0
2   401	027D  B9 000D					 mov cx, wdth_0
2   402	0280  F3> AB					 rep stosw ;ax -> es:di
1   403							 STOS_LINE 188,	color_0, 1 ;up rght corner
2   404	0282  B0 BC					 mov al, 188
2   405	0284  B4 1A					 mov ah, color_0
2   406	0286  B9 0001					 mov cx, 1
2   407	0289  F3> AB					 rep stosw ;ax -> es:di
    408	028B  EB 11 90				     jmp @@wait
    409
    410	028E  8A 07		     @@set_clr:	     mov al, [bx]
    411	0290  84 C0				     test al, al
    412	0292  B0 2D				     mov al, symbol_0 ;off
    413	0294  74 C3				     jz	@@OFF
    414	0296  B0 2B				     mov al, symbol_1 ;on
    415	0298  8A 26 0077r			     mov ah, [Settings_Data + 1d]
    416	029C  EB BD				     jmp @@ON
    417
    418	029E  E8 0001		     @@wait:	     call Switch_Settings
    419
    420	02A1  C3		     @@exit:	     ret
    421	02A2					     endp
    422				     ;===============================Show_Settings============================
    423				     ;Entry:
    424				     ;Exit: mode
    425				     ;Expected:	ds = default
    426				     ;Destroyed: ax, bx, cx, dx, si, di, es
    427				     ;Comment: show settings of	crack
    428				     ;ToDo:
    429				     ;========================================================================
    430
    431
    432				     ;===============================Switch_Settings==========================
    433	02A2			     Switch_Settings proc
    434
    435	02A2  32 E4		     @@next_press:   xor ah, ah
    436	02A4  CD 16				     int 16h ;get ax - scan(ah)	+ ascii(al) code
    437	02A6  80 FC 3E				     cmp ah, scancode_0	;is f4 -> exit
    438	02A9  74 0F				     je	@@exit
    439
    440	02AB  3C 30				     cmp al, '0'
    441	02AD  72 F3				     jb	@@next_press
    442	02AF  3C 32				     cmp al, '2'
    443	02B1  77 EF				     ja	@@next_press
    444	02B3  2C 30				     sub al, '0' ;digit	from 0 to 2 string
    445	02B5  E8 0006				     call Get_Turn
    446
    447	02B8  EB E8				     jmp @@next_press
    448
    449	02BA  E8 004F		     @@exit:	     call ClrScrDOS
    450	02BD  C3				     ret
    451	02BE					     endp
    452				     ;===============================Switch_Settings==========================
    453				     ;Entry:
    454				     ;Exit:
    455				     ;Expected:	ds = default
    456				     ;Destroyed: ax, bl, cx, si, di, es
Turbo Assembler	 Version 4.1	    03/11/26 19:52:41	    Page 9
crack.asm



    457				     ;Comment: set settings of crack
    458				     ;ToDo:
    459				     ;========================================================================
    460
    461				     ;==============================Get_Turn==================================
    462	02BE			     Get_Turn	     proc
    463
    464	02BE  32 E4				     xor ah, ah
    465	02C0  8B F0				     mov si, ax
    466	02C2  8D B4 00A1r			     lea si, [si + Status_Data]
    467	02C6  8A 1C				     mov bl, [si]
    468	02C8  80 F3 01				     xor bl, 1 ; swap status
    469	02CB  88 1C				     mov byte ptr [si],	bl
    470
    471	02CD  B9 B800				     mov cx, _VmemSeg_
    472	02D0  8E C1				     mov es, cx
    473	02D2  BF 07B6				     mov di, _VmemPos_
    474
    475	02D5  32 ED				     xor ch, ch
    476	02D7  8A C8				     mov cl, al
    477	02D9  80 C1 02				     add cl, 2d
    478
    479	02DC  8D BD 00A0	     @@lp:	     lea di, [di + 80d * 2];next line
    480	02E0  E2 FA				     loop @@lp ;cx = 0
    481
    482	02E2  32 ED				     xor ch, ch
    483	02E4  8A 0E 0076r			     mov cl, [Settings_Data]
    484	02E8  FE C1				     inc cl ;1 byte more
    485	02EA  D1 E1				     shl cx, 1
    486	02EC  03 F9				     add di, cx	;get pos of switch
    487
    488	02EE  84 DB				     test bl, bl
    489	02F0  74 10				     jz	@@off
    490	02F2  8A 3E 0077r			     mov bh, [Settings_Data + 1d]
    491						     STOS_LINE symbol_1, bh, 1
1   492	02F6  B0 2B					 mov al, symbol_1
1   493	02F8  8A E7					 mov ah, bh
1   494	02FA  B9 0001					 mov cx, 1
1   495	02FD  F3> AB					 rep stosw ;ax -> es:di
    496	02FF  EB 0A 90				     jmp @@exit
    497
    498	0302			     @@off:	     STOS_LINE symbol_0, color_0, 1
1   499	0302  B0 2D					 mov al, symbol_0
1   500	0304  B4 1A					 mov ah, color_0
1   501	0306  B9 0001					 mov cx, 1
1   502	0309  F3> AB					 rep stosw ;ax -> es:di
    503
    504	030B  C3		     @@exit:	     ret
    505	030C					     endp
    506				     ;==============================Get_Turn==================================
    507				     ;Entry: al	- setting idx
    508				     ;	     bl	- status flag
    509				     ;Exit:
    510				     ;Expected:
    511				     ;Destroyed: si, ax, es:di,	cx, bx
    512				     ;Comment: return turn setting pos and make	changes
    513				     ;ToDo:
Turbo Assembler	 Version 4.1	    03/11/26 19:52:41	    Page 10
crack.asm



    514				     ;========================================================================
    515
    516				     ;==============================ClrScrDOS=================================
    517	030C			     ClrScrDOS	     proc
    518	030C  B8 0600				     mov ax, 0600h ;ah - clear screen, al - clear entire screen
    519	030F  B7 07				     mov bh, 07h ;scroll wndw dwn
    520	0311  33 C9				     xor cx, cx
    521	0313  BA 184F				     mov dx, 184fh
    522	0316  CD 10				     int 10h ;10!
    523	0318  C3				     ret
    524	0319					     endp
    525				     ;==============================ClrScrDOS=================================
    526				     ;Entry:
    527				     ;Exit:
    528				     ;Expected:
    529				     ;Destroyed: ax, bh, cx, dx
    530				     ;Comment: clear entire terminal screen
    531				     ;ToDo:
    532				     ;========================================================================
    533
    534				     ;====================================End=================================
    535	0319			     End_Of_Prog:
    536				     end	     Start
Turbo Assembler	 Version 4.1	    03/11/26 19:52:41	    Page 11
Symbol Table




Symbol Name			  Type	 Value

??DATE				  Text	 "03/11/26"
??FILENAME			  Text	 "crack	  "
??TIME				  Text	 "19:52:41"
??VERSION			  Number 040A
@32BIT				  Text	 0
@@BACK				  Near	 DGROUP:011C
@@EXIT				  Near	 DGROUP:0131
@@EXIT				  Near	 DGROUP:014C
@@EXIT				  Near	 DGROUP:0184
@@EXIT				  Near	 DGROUP:02A1
@@EXIT				  Near	 DGROUP:02BA
@@EXIT				  Near	 DGROUP:030B
@@LP				  Near	 DGROUP:0146
@@LP				  Near	 DGROUP:01C3
@@LP				  Near	 DGROUP:0244
@@LP				  Near	 DGROUP:02DC
@@LP_LINE			  Near	 DGROUP:0253
@@MENU				  Near	 DGROUP:022A
@@NEXT				  Near	 DGROUP:0197
@@NEXT_PRESS			  Near	 DGROUP:02A2
@@OFF				  Near	 DGROUP:0259
@@OFF				  Near	 DGROUP:0302
@@ON				  Near	 DGROUP:025B
@@SET_CLR			  Near	 DGROUP:028E
@@SKIP_RESIZE			  Near	 DGROUP:015A
@@WAIT				  Near	 DGROUP:029E
@CODE				  Text	 DGROUP
@CODESIZE			  Text	 0
@CPU				  Text	 0707H
@CURSEG				  Text	 _TEXT
@DATA				  Text	 DGROUP
@DATASIZE			  Text	 0
@FILENAME			  Text	 CRACK
@INTERFACE			  Text	 000H
@MODEL				  Text	 1
@STACK				  Text	 DGROUP
@WORDSIZE			  Text	 2
ACCCES_STRLEN			  Number 0012
ATOI				  Near	 ----:---- Extern
CHECK_PWD			  Near	 DGROUP:016F
CLRSCRDOS			  Near	 DGROUP:030C
COLOR_0				  Number 001A
DEF_SIZE			  Number 0009
DENY_MSG			  Byte	 DGROUP:0013
ENCODE_PWD			  Near	 DGROUP:0132
END_OF_PROG			  Near	 DGROUP:0319
ENTER_PWD			  Near	 DGROUP:014D
GET_ACCESS			  Near	 DGROUP:0108
GET_TURN			  Near	 DGROUP:02BE
GRANT_MSG			  Byte	 DGROUP:0000
HGHT_0				  Number 0005
HUGE_SIZE			  Number 0064
INPUT_BUF			  Byte	 DGROUP:0037
MAIN				  Near	 DGROUP:0100
Turbo Assembler	 Version 4.1	    03/11/26 19:52:41	    Page 12
Symbol Table



MENU_DATA			  Byte	 DGROUP:0068
MSG				  Byte	 DGROUP:004B
PROMPT				  Byte	 DGROUP:0026
PWD_BUF				  Byte	 DGROUP:0042
PWD_LEN				  Number 0008
SCANCODE_0			  Number 003E
SETTINGS_DATA			  Byte	 DGROUP:0076
SHOW_ACCESS			  Near	 DGROUP:0185
SHOW_SETTINGS			  Near	 DGROUP:01EF
SKIP_SPACES			  Near	 ----:---- Extern
START				  Near	 DGROUP:0100
STATUS_DATA			  Byte	 DGROUP:00A1
STRCHR				  Near	 ----:---- Extern
STRLEN				  Near	 ----:---- Extern
SWITCH_SETTINGS			  Near	 DGROUP:02A2
SYMBOL_0			  Number 002D
SYMBOL_1			  Number 002B
WAITFORKEY			  Near	 DGROUP:011C
WDTH_0				  Number 000D
_VMEMPOS_			  Number 07B6
_VMEMSEG_			  Number B800

Macro Name

END_PROG
NEXTLINE
STOSDWN_LINE
STOSUP_LINE
STOS_LINE

Groups & Segments		  Bit Size Align  Combine Class

DGROUP				  Group
  _DATA				  16  00A4 Word	  Public  DATA
  _TEXT				  16  0319 Word	  Public  CODE
