Turbo Assembler	 Version 4.1	    03/10/26 21:41:54	    Page 1
strfuncs.asm



      1	0000			     .model tiny
      2	0000			     .code
      3				     LOCALS @@
      4				     public Strlen, Strchr, Skip_Spaces, Atoi
      5
      6				     ;================================StrLen===================================
      7	0000			     Strlen		     proc
      8	0000  32 E4						     xor ah, ah
      9	0002  B0 0D						     mov al, 0dh
     10
     11	0004  FC						     cld
     12	0005  33 C9						     xor cx, cx
     13	0007  49						     dec cx
     14	0008  F2> AE						     repne scasb
     15	000A  4F						     dec di
     16
     17	000B  91						     xchg ax, cx
     18	000C  F7 D0						     not ax
     19	000E  48						     dec ax
     20
     21	000F  C3						     ret
     22	0010							     endp
     23				     ;================================StrLen===================================
     24				     ;Entry:	     ES:DI - read_adr
     25				     ;Exit:	     AX	- len
     26				     ;Expected:	% is the end of	str, or	err
     27				     ;Destroyed: CX, ES:DI
     28				     ;Comment: return len of str from cur pos to 0dh
     29				     ;ToDo:
     30				     ;=========================================================================
     31				     ;================================StrChr===================================
     32	0010			     Strchr		     proc
     33	0010  8A D1						     mov dl, cl
     34
     35	0012  E8 FFEB						     call Strlen ;ax - len
     36	0015  8B C8						     mov cx, ax	;max len
     37	0017  8A C2						     mov al, dl	;trgt sym
     38
     39	0019  FC						     cld
     40	001A  F2> AE						     repne scasb
     41	001C  4F						     dec di
     42	001D  26: 3A 05						     cmp byte ptr al, es:[di]
     43	0020  74 02						     je	@@exit ;search is ok
     44
     45	0022  33 FF						     xor di, di
     46
     47	0024  C3		     @@exit:		     ret
     48	0025							     endp
     49				     ;================================StrChr===================================
     50				     ;Entry:	     ES:DI - read_adr
     51				     ;			     CL	- target symbol	!= 0
     52				     ;Exit:	     ES:DI - found pos
     53				     ;Expected:
     54				     ;Destroyed: AX, CX, DX
     55				     ;Comment: ret DI -	pos of found sym
     56				     ;ret 0 (in	DI) when end of	cmd string (0dh) reached FAIL
     57				     ;ToDo:
Turbo Assembler	 Version 4.1	    03/10/26 21:41:54	    Page 2
strfuncs.asm



     58				     ;=========================================================================
     59
     60				     ;===============================Skip_Spaces===============================
     61	0025			     Skip_Spaces	     proc
     62
     63	0025  AC		     @@next_sp:		     lodsb
     64	0026  3C 20						     cmp al, ' '
     65	0028  75 02						     jne @@exit
     66	002A  EB F9						     jmp @@next_sp
     67
     68	002C  4E		     @@exit:		     dec si
     69	002D  C3						     ret
     70	002E							     endp
     71				     ;===============================Skip_Spaces===============================
     72				     ;Entry:	     DS:SI - read addr
     73				     ;Exit:	     SI	+= Nspaces
     74				     ;Expected:	     DS	= default
     75				     ;Destroyed: AL
     76				     ;Comment: skips all spaces	from cur_pos
     77				     ;ToDo:
     78				     ;=========================================================================
     79
     80				     ;===============================Atoi======================================
     81	002E			     Atoi		     proc
     82	002E  55						     push bp
     83
     84	002F  E8 FFF3						     call Skip_Spaces
     85
     86	0032  33 DB						     xor bx, bx
     87	0034  33 C0						     xor ax, ax
     88
     89	0036  AC		     @@next_digit:   lodsb
     90
     91	0037  3C 39						     cmp al, '9'
     92	0039  77 16						     ja	@@exit
     93	003B  3C 30						     cmp al, '0'
     94	003D  72 12						     jb	@@exit
     95
     96	003F  24 0F						     and al, 0fh ; and 00001111
     97
     98	0041  8B D3						     mov dx, bx
     99	0043  D1 E2						     shl dx, 1 ; dx = 2bx
    100
    101	0045  D1 E3 D1 E3 D1 E3					     shl bx, 3 ; bx *= 8
    102	004B  03 DA						     add bx, dx	; 10bx
    103
    104	004D  03 D8						     add bx, ax
    105
    106	004F  EB E5						     jmp @@next_digit
    107
    108	0051  4E		     @@exit:		     dec si
    109	0052  5D						     pop bp
    110	0053  C3						     ret
    111	0054							     endp
    112				     ;===============================Atoi======================================
    113				     ;Entry:	     DS:SI - read addr
    114				     ;Exit:	     BX	- num, AL = -1
Turbo Assembler	 Version 4.1	    03/10/26 21:41:54	    Page 3
strfuncs.asm



    115				     ;Expected:	     DS	= default
    116				     ;Destroyed: DX
    117				     ;Comment: convert str to num
    118				     ;ToDo:
    119				     ;=========================================================================
    120
    121				     end
Turbo Assembler	 Version 4.1	    03/10/26 21:41:54	    Page 4
Symbol Table




Symbol Name			  Type	 Value

??DATE				  Text	 "03/10/26"
??FILENAME			  Text	 "strfuncs"
??TIME				  Text	 "21:41:54"
??VERSION			  Number 040A
@32BIT				  Text	 0
@@EXIT				  Near	 DGROUP:0024
@@EXIT				  Near	 DGROUP:002C
@@EXIT				  Near	 DGROUP:0051
@@NEXT_DIGIT			  Near	 DGROUP:0036
@@NEXT_SP			  Near	 DGROUP:0025
@CODE				  Text	 DGROUP
@CODESIZE			  Text	 0
@CPU				  Text	 0101H
@CURSEG				  Text	 _TEXT
@DATA				  Text	 DGROUP
@DATASIZE			  Text	 0
@FILENAME			  Text	 STRFUNCS
@INTERFACE			  Text	 000H
@MODEL				  Text	 1
@STACK				  Text	 DGROUP
@WORDSIZE			  Text	 2
ATOI				  Near	 DGROUP:002E
SKIP_SPACES			  Near	 DGROUP:0025
STRCHR				  Near	 DGROUP:0010
STRLEN				  Near	 DGROUP:0000

Groups & Segments		  Bit Size Align  Combine Class

DGROUP				  Group
  _DATA				  16  0000 Word	  Public  DATA
  _TEXT				  16  0054 Word	  Public  CODE
